target datalayout = "e-m:e-p270:32:32-p271:32:32-p272:64:64-i64:64-i128:128-f80:128-n8:16:32:64-S128"
target triple = "x86_64-pc-linux-gnu"

%struct.timeval = type { i64, i64 }

@pmi_time = dso_local global i32 0, align 4
@.str.15 = private unnamed_addr constant [9 x i8] c"PMI_TIME\00", align 1
@.str.16 = private unnamed_addr constant [21 x i8] c"Invalid PMI_TIME: %s\00", align 1

; Function Attrs: nounwind uwtable
define internal void @_set_pmi_time() #0 {
  %1 = alloca ptr, align 8
  %2 = alloca ptr, align 8
  %3 = alloca i32, align 4
  call void @llvm.lifetime.start.p0(i64 8, ptr %1) #8
  call void @llvm.lifetime.start.p0(i64 8, ptr %2) #8
  %4 = load i32, ptr @pmi_time, align 4
  %5 = icmp ne i32 %4, 0
  br i1 %5, label %6, label %7

6:                                                ; preds = %0
  store i32 1, ptr %3, align 4
  br label %28

7:                                                ; preds = %0
  %8 = call ptr @getenv(ptr noundef @.str.15) #8
  store ptr %8, ptr %1, align 8
  %9 = load ptr, ptr %1, align 8
  %10 = icmp eq ptr %9, null
  br i1 %10, label %11, label %12

11:                                               ; preds = %7
  store i32 500, ptr @pmi_time, align 4
  store i32 1, ptr %3, align 4
  br label %28

12:                                               ; preds = %7
  %13 = load ptr, ptr %1, align 8
  %14 = call i64 @strtol(ptr noundef %13, ptr noundef %2, i32 noundef 10) #8
  %15 = trunc i64 %14 to i32
  store i32 %15, ptr @pmi_time, align 4
  %16 = load i32, ptr @pmi_time, align 4
  %17 = icmp sle i32 %16, 0
  br i1 %17, label %24, label %18

18:                                               ; preds = %12
  %19 = load ptr, ptr %2, align 8
  %20 = getelementptr inbounds i8, ptr %19, i64 0
  %21 = load i8, ptr %20, align 1
  %22 = sext i8 %21 to i32
  %23 = icmp ne i32 %22, 0
  br i1 %23, label %24, label %27

24:                                               ; preds = %18, %12
  %25 = load ptr, ptr %1, align 8
  %26 = call i32 (ptr, ...) @error(ptr noundef @.str.16, ptr noundef %25)
  store i32 500, ptr @pmi_time, align 4
  br label %27

27:                                               ; preds = %24, %18
  store i32 0, ptr %3, align 4
  br label %28

28:                                               ; preds = %27, %11, %6
  call void @llvm.lifetime.end.p0(i64 8, ptr %2) #8
  call void @llvm.lifetime.end.p0(i64 8, ptr %1) #8
  %29 = load i32, ptr %3, align 4
  switch i32 %29, label %31 [
    i32 0, label %30
    i32 1, label %30
  ]

30:                                               ; preds = %28, %28
  ret void

31:                                               ; preds = %28
  unreachable
}

; Function Attrs: nounwind uwtable
define internal void @_delay_rpc(i32 noundef %0, i32 noundef %1) #0 {
  %3 = alloca i32, align 4
  %4 = alloca i32, align 4
  %5 = alloca %struct.timeval, align 8
  %6 = alloca %struct.timeval, align 8
  %7 = alloca i32, align 4
  %8 = alloca i32, align 4
  %9 = alloca i32, align 4
  %10 = alloca i32, align 4
  %11 = alloca i32, align 4
  %12 = alloca i32, align 4
  %13 = alloca i32, align 4
  %14 = alloca i32, align 4
  store i32 %0, ptr %3, align 4
  store i32 %1, ptr %4, align 4
  call void @llvm.lifetime.start.p0(i64 16, ptr %5) #8
  call void @llvm.lifetime.start.p0(i64 16, ptr %6) #8
  call void @llvm.lifetime.start.p0(i64 4, ptr %7) #8
  call void @llvm.lifetime.start.p0(i64 4, ptr %8) #8
  call void @llvm.lifetime.start.p0(i64 4, ptr %9) #8
  call void @llvm.lifetime.start.p0(i64 4, ptr %10) #8
  call void @llvm.lifetime.start.p0(i64 4, ptr %11) #8
  call void @llvm.lifetime.start.p0(i64 4, ptr %12) #8
  call void @llvm.lifetime.start.p0(i64 4, ptr %13) #8
  store i32 0, ptr %13, align 4
  %15 = load i32, ptr %3, align 4
  %16 = icmp eq i32 %15, 0
  br i1 %16, label %17, label %18

17:                                               ; preds = %2
  store i32 1, ptr %14, align 4
  br label %116

18:                                               ; preds = %2
  call void @_set_pmi_time()
  br label %19

19:                                               ; preds = %113, %68, %18
  %20 = call i32 @gettimeofday(ptr noundef %5, ptr noundef null) #8
  %21 = icmp ne i32 %20, 0
  br i1 %21, label %22, label %27

22:                                               ; preds = %19
  %23 = load i32, ptr %3, align 4
  %24 = load i32, ptr @pmi_time, align 4
  %25 = mul nsw i32 %23, %24
  %26 = call i32 @usleep(i32 noundef %25)
  store i32 1, ptr %14, align 4
  br label %116

27:                                               ; preds = %19
  %28 = getelementptr inbounds nuw %struct.timeval, ptr %5, i32 0, i32 0
  %29 = load i64, ptr %28, align 8
  %30 = srem i64 %29, 1000
  %31 = mul nsw i64 %30, 1000000
  %32 = getelementptr inbounds nuw %struct.timeval, ptr %5, i32 0, i32 1
  %33 = load i64, ptr %32, align 8
  %34 = add nsw i64 %31, %33
  %35 = trunc i64 %34 to i32
  store i32 %35, ptr %7, align 4
  %36 = load i32, ptr %4, align 4
  %37 = load i32, ptr @pmi_time, align 4
  %38 = mul nsw i32 %36, %37
  store i32 %38, ptr %8, align 4
  %39 = load i32, ptr %7, align 4
  %40 = load i32, ptr %8, align 4
  %41 = urem i32 %39, %40
  store i32 %41, ptr %9, align 4
  %42 = load i32, ptr %3, align 4
  %43 = load i32, ptr @pmi_time, align 4
  %44 = mul nsw i32 %42, %43
  store i32 %44, ptr %10, align 4
  %45 = load i32, ptr %10, align 4
  %46 = load i32, ptr %9, align 4
  %47 = icmp ult i32 %45, %46
  br i1 %47, label %48, label %54

48:                                               ; preds = %27
  %49 = load i32, ptr %10, align 4
  %50 = load i32, ptr %9, align 4
  %51 = sub i32 %49, %50
  %52 = load i32, ptr %8, align 4
  %53 = add i32 %51, %52
  store i32 %53, ptr %11, align 4
  br label %58

54:                                               ; preds = %27
  %55 = load i32, ptr %10, align 4
  %56 = load i32, ptr %9, align 4
  %57 = sub i32 %55, %56
  store i32 %57, ptr %11, align 4
  br label %58

58:                                               ; preds = %54, %48
  %59 = load i32, ptr %11, align 4
  %60 = call i32 @usleep(i32 noundef %59)
  %61 = icmp ne i32 %60, 0
  br i1 %61, label %62, label %69

62:                                               ; preds = %58
  %63 = call ptr @__errno_location() #10
  %64 = load i32, ptr %63, align 4
  %65 = icmp eq i32 %64, 22
  br i1 %65, label %66, label %68

66:                                               ; preds = %62
  %67 = call i32 @usleep(i32 noundef 900000)
  br label %68

68:                                               ; preds = %66, %62
  br label %19

69:                                               ; preds = %58
  %70 = call i32 @gettimeofday(ptr noundef %6, ptr noundef null) #8
  %71 = icmp ne i32 %70, 0
  br i1 %71, label %72, label %73

72:                                               ; preds = %69
  store i32 1, ptr %14, align 4
  br label %116

73:                                               ; preds = %69
  %74 = getelementptr inbounds nuw %struct.timeval, ptr %6, i32 0, i32 0
  %75 = load i64, ptr %74, align 8
  %76 = getelementptr inbounds nuw %struct.timeval, ptr %5, i32 0, i32 0
  %77 = load i64, ptr %76, align 8
  %78 = sub nsw i64 %75, %77
  %79 = mul nsw i64 %78, 1000000
  %80 = trunc i64 %79 to i32
  store i32 %80, ptr %8, align 4
  %81 = getelementptr inbounds nuw %struct.timeval, ptr %6, i32 0, i32 1
  %82 = load i64, ptr %81, align 8
  %83 = load i32, ptr %8, align 4
  %84 = zext i32 %83 to i64
  %85 = add nsw i64 %84, %82
  %86 = trunc i64 %85 to i32
  store i32 %86, ptr %8, align 4
  %87 = getelementptr inbounds nuw %struct.timeval, ptr %5, i32 0, i32 1
  %88 = load i64, ptr %87, align 8
  %89 = load i32, ptr %8, align 4
  %90 = zext i32 %89 to i64
  %91 = sub nsw i64 %90, %88
  %92 = trunc i64 %91 to i32
  store i32 %92, ptr %8, align 4
  %93 = load i32, ptr %8, align 4
  %94 = load i32, ptr %11, align 4
  %95 = icmp uge i32 %93, %94
  br i1 %95, label %96, label %100

96:                                               ; preds = %73
  %97 = load i32, ptr %8, align 4
  %98 = load i32, ptr %11, align 4
  %99 = sub i32 %97, %98
  store i32 %99, ptr %12, align 4
  br label %104

100:                                              ; preds = %73
  %101 = load i32, ptr %11, align 4
  %102 = load i32, ptr %8, align 4
  %103 = sub i32 %101, %102
  store i32 %103, ptr %12, align 4
  br label %104

104:                                              ; preds = %100, %96
  %105 = load i32, ptr %12, align 4
  %106 = load i32, ptr @pmi_time, align 4
  %107 = mul nsw i32 15, %106
  %108 = icmp ugt i32 %105, %107
  br i1 %108, label %109, label %115

109:                                              ; preds = %104
  %110 = load i32, ptr %13, align 4
  %111 = add nsw i32 %110, 1
  store i32 %111, ptr %13, align 4
  %112 = icmp sle i32 %111, 2
  br i1 %112, label %113, label %114

113:                                              ; preds = %109
  br label %19

114:                                              ; preds = %109
  br label %115

115:                                              ; preds = %114, %104
  store i32 0, ptr %14, align 4
  br label %116

116:                                              ; preds = %115, %72, %22, %17
  call void @llvm.lifetime.end.p0(i64 4, ptr %13) #8
  call void @llvm.lifetime.end.p0(i64 4, ptr %12) #8
  call void @llvm.lifetime.end.p0(i64 4, ptr %11) #8
  call void @llvm.lifetime.end.p0(i64 4, ptr %10) #8
  call void @llvm.lifetime.end.p0(i64 4, ptr %9) #8
  call void @llvm.lifetime.end.p0(i64 4, ptr %8) #8
  call void @llvm.lifetime.end.p0(i64 4, ptr %7) #8
  call void @llvm.lifetime.end.p0(i64 16, ptr %6) #8
  call void @llvm.lifetime.end.p0(i64 16, ptr %5) #8
  %117 = load i32, ptr %14, align 4
  switch i32 %117, label %119 [
    i32 0, label %118
    i32 1, label %118
  ]

118:                                              ; preds = %116, %116
  ret void

119:                                              ; preds = %116
  unreachable
}