; Function Attrs: nounwind uwtable
define internal fastcc void @_delay_rpc(i32 noundef %0, i32 noundef %1) unnamed_addr #0 {
  %3 = alloca ptr, align 8
  %4 = alloca %struct.timeval, align 8
  %5 = alloca %struct.timeval, align 8
  call void @llvm.lifetime.start.p0(i64 16, ptr nonnull %4) #10
  call void @llvm.lifetime.start.p0(i64 16, ptr nonnull %5) #10
  %6 = icmp eq i32 %0, 0
  br i1 %6, label %.loopexit, label %7

7:                                                ; preds = %2
  call void @llvm.lifetime.start.p0(i64 8, ptr nonnull %3) #10
  %8 = load i32, ptr @pmi_time, align 4
  %.not.i = icmp eq i32 %8, 0
  br i1 %.not.i, label %9, label %_set_pmi_time.exit

9:                                                ; preds = %7
  %10 = tail call ptr @getenv(ptr noundef nonnull @.str.15) #10
  %11 = icmp eq ptr %10, null
  br i1 %11, label %.sink.split.i, label %12

12:                                               ; preds = %9
  %13 = call i64 @strtol(ptr noundef nonnull %10, ptr noundef nonnull %3, i32 noundef 10) #10
  %14 = trunc i64 %13 to i32
  store i32 %14, ptr @pmi_time, align 4
  %15 = icmp slt i32 %14, 1
  br i1 %15, label %19, label %16

16:                                               ; preds = %12
  %17 = load ptr, ptr %3, align 8
  %18 = load i8, ptr %17, align 1
  %.not3.i = icmp eq i8 %18, 0
  br i1 %.not3.i, label %_set_pmi_time.exit, label %19

19:                                               ; preds = %16, %12
  %20 = tail call i32 (ptr, ...) @error(ptr noundef nonnull @.str.16, ptr noundef nonnull %10) #10
  br label %.sink.split.i

.sink.split.i:                                    ; preds = %19, %9
  store i32 500, ptr @pmi_time, align 4
  br label %_set_pmi_time.exit

_set_pmi_time.exit:                               ; preds = %7, %16, %.sink.split.i
  call void @llvm.lifetime.end.p0(i64 8, ptr nonnull %3) #10
  %21 = getelementptr inbounds nuw i8, ptr %4, i64 8
  %22 = getelementptr inbounds nuw i8, ptr %5, i64 8
  br label %.outer

.outer:                                           ; preds = %51, %_set_pmi_time.exit
  %.0.ph = phi i32 [ %64, %51 ], [ 0, %_set_pmi_time.exit ]
  %23 = call i32 @gettimeofday(ptr noundef nonnull %4, ptr noundef null) #10
  %.not38 = icmp eq i32 %23, 0
  br i1 %.not38, label %.lr.ph, label %.outer._crit_edge

.outer._crit_edge:                                ; preds = %.outer, %47
  %24 = load i32, ptr @pmi_time, align 4
  %25 = mul nsw i32 %24, %0
  %26 = tail call i32 @usleep(i32 noundef %25) #10
  br label %.loopexit

.lr.ph:                                           ; preds = %.outer, %47
  %27 = load i64, ptr %4, align 8
  %28 = srem i64 %27, 1000
  %29 = mul nsw i64 %28, 1000000
  %30 = load i64, ptr %21, align 8
  %31 = add nsw i64 %29, %30
  %32 = trunc i64 %31 to i32
  %33 = load i32, ptr @pmi_time, align 4
  %34 = mul nsw i32 %33, %1
  %35 = urem i32 %32, %34
  %36 = mul nsw i32 %33, %0
  %37 = icmp ult i32 %36, %35
  %38 = sub i32 %36, %35
  %39 = select i1 %37, i32 %34, i32 0
  %.025 = add i32 %39, %38
  %40 = tail call i32 @usleep(i32 noundef %.025) #10
  %.not33 = icmp eq i32 %40, 0
  br i1 %.not33, label %49, label %41

41:                                               ; preds = %.lr.ph
  %42 = tail call ptr @__errno_location() #11
  %43 = load i32, ptr %42, align 4
  %44 = icmp eq i32 %43, 22
  br i1 %44, label %45, label %47

45:                                               ; preds = %41
  %46 = tail call i32 @usleep(i32 noundef 900000) #10
  br label %47

47:                                               ; preds = %45, %41
  %48 = call i32 @gettimeofday(ptr noundef nonnull %4, ptr noundef null) #10
  %.not = icmp eq i32 %48, 0
  br i1 %.not, label %.lr.ph, label %.outer._crit_edge

49:                                               ; preds = %.lr.ph
  %50 = call i32 @gettimeofday(ptr noundef nonnull %5, ptr noundef null) #10
  %.not34 = icmp eq i32 %50, 0
  br i1 %.not34, label %51, label %.loopexit

51:                                               ; preds = %49
  %52 = load i64, ptr %5, align 8
  %53 = sub nsw i64 %52, %27
  %54 = mul i64 %53, 1000000
  %55 = load i64, ptr %22, align 8
  %56 = sub i64 %55, %30
  %57 = add i64 %56, %54
  %58 = trunc i64 %57 to i32
  %.not35 = icmp ugt i32 %.025, %58
  %59 = sub nuw i32 %58, %.025
  %60 = sub nuw i32 %.025, %58
  %.024 = select i1 %.not35, i32 %60, i32 %59
  %61 = load i32, ptr @pmi_time, align 4
  %62 = mul nsw i32 %61, 15
  %63 = icmp ugt i32 %.024, %62
  %64 = add nuw nsw i32 %.0.ph, 1
  %65 = icmp samesign ult i32 %.0.ph, 2
  %or.cond = select i1 %63, i1 %65, i1 false
  br i1 %or.cond, label %.outer, label %.loopexit

.loopexit:                                        ; preds = %51, %49, %2, %.outer._crit_edge
  call void @llvm.lifetime.end.p0(i64 16, ptr nonnull %5) #10
  call void @llvm.lifetime.end.p0(i64 16, ptr nonnull %4) #10
  ret void
}